Certificate:
    Data:
        Version: 3 (0x2)
        Serial Number: 1 (0x1)
        Signature Algorithm: sha1WithRSAEncryption
        Issuer: DC=org, DC=imagina, O=Imagina Inc, OU=Imagina Signing CA, CN=Imagina Signing CA
        Validity
            Not Before: Dec 12 19:29:18 2022 GMT
            Not After : Dec 11 19:29:18 2024 GMT
        Subject: DC=org, DC=imagina, DC=imagina, O=Imagina Inc, OU=Imagina Signing CA, CN=Imagina Signing CA
        Subject Public Key Info:
            Public Key Algorithm: rsaEncryption
                RSA Public-Key: (2048 bit)
                Modulus:
                    00:99:b9:e5:30:e4:3e:3d:8a:d1:01:5a:e6:62:4e:
                    da:12:22:32:fa:28:04:03:af:b6:e4:fb:9c:de:a1:
                    43:30:18:38:d9:f6:15:0a:b2:4c:2c:36:ee:b5:4f:
                    b0:fc:18:41:17:2f:5d:c9:5f:32:47:8d:31:ba:8d:
                    0d:67:02:73:47:00:93:82:c7:93:29:3b:5d:ea:fa:
                    2d:ab:9d:78:07:19:85:37:42:28:77:42:94:96:b4:
                    17:c7:48:ca:1a:dc:55:2d:55:3d:72:6a:0b:2e:00:
                    93:91:7b:cf:6e:30:a3:2b:ee:7b:9e:e6:03:08:2c:
                    1e:b6:68:2d:83:8d:e5:31:40:f4:f4:09:b4:2d:ca:
                    c6:e9:fc:c4:3b:b9:aa:b7:91:f0:c0:41:3f:e2:21:
                    8b:ce:5c:71:7e:5b:9e:e9:2c:41:c5:4c:61:7d:6c:
                    3f:fd:7d:5f:8f:f0:08:83:ae:c8:6d:11:bb:35:a4:
                    59:10:3b:06:e2:8c:e4:1e:9b:42:1a:2e:0d:05:17:
                    ea:0b:ec:0c:a6:aa:60:73:d5:52:30:73:38:96:5e:
                    77:60:52:e2:ff:af:be:68:13:fe:75:30:21:1f:d4:
                    8d:87:f8:eb:65:e9:d4:51:b0:45:1b:32:03:a2:ff:
                    07:14:74:32:87:15:d9:a6:fc:2d:de:6b:ff:f1:2c:
                    a0:21
                Exponent: 65537 (0x10001)
        X509v3 extensions:
            X509v3 Key Usage: critical
                Digital Signature, Key Encipherment
            X509v3 Basic Constraints: 
                CA:FALSE
            X509v3 Extended Key Usage: 
                TLS Web Server Authentication, TLS Web Client Authentication
            X509v3 Subject Key Identifier: 
                10:39:B6:38:76:95:E0:19:E0:1A:2F:99:47:B2:CD:29:BB:32:23:47
            X509v3 Authority Key Identifier: 
                keyid:26:49:6B:6F:01:75:77:75:EB:DD:73:43:30:AD:C7:4D:2D:B7:C3:B4

            X509v3 Subject Alternative Name: 
                DNS:imagina.k8s.org
    Signature Algorithm: sha1WithRSAEncryption
         65:d4:be:5d:6a:dc:5d:25:48:37:e8:ee:b8:f1:b5:f7:ed:3f:
         08:70:48:a0:b0:46:f0:73:57:c4:55:78:e7:d3:b3:47:eb:57:
         8b:9b:e4:ab:15:94:fd:99:20:e4:93:ac:ee:88:41:1c:86:6a:
         cd:2a:bc:09:6a:d9:23:e8:1c:97:85:d6:72:a7:c6:48:00:08:
         98:a6:11:a4:c8:64:8a:8c:c1:fa:a2:c6:a6:55:8e:52:f6:7a:
         8e:34:2f:a3:c1:25:a8:0b:43:19:4a:e5:82:eb:e3:4f:b1:5a:
         4c:be:52:88:58:4a:6d:e8:6f:ce:50:bd:45:8f:d9:5c:e3:09:
         30:d6:91:51:85:08:73:f1:e8:bf:02:bf:0d:77:b8:3e:48:d0:
         1d:ef:a0:e1:5c:60:ab:71:18:e2:40:f6:e4:71:7a:0a:13:9b:
         4d:b8:f4:ac:f4:a5:82:54:a2:a4:df:5b:14:08:b4:6e:d2:21:
         83:b3:b9:13:c9:4d:dc:45:f1:4e:a4:99:ea:a7:36:06:9f:4a:
         a1:a5:46:de:cc:e8:b8:0d:ac:1f:52:e3:b5:48:89:06:7f:0b:
         5e:e8:7d:06:ab:16:b9:b2:97:1e:0e:33:33:f7:1f:35:64:da:
         f6:cb:7a:10:9c:6b:45:b5:90:79:24:a1:63:39:c9:bf:36:dd:
         39:f2:ab:fe
-----BEGIN CERTIFICATE-----
MIIEKzCCAxOgAwIBAgIBATANBgkqhkiG9w0BAQUFADB+MRMwEQYKCZImiZPyLGQB
GRYDb3JnMRcwFQYKCZImiZPyLGQBGRYHaW1hZ2luYTEUMBIGA1UECgwLSW1hZ2lu
YSBJbmMxGzAZBgNVBAsMEkltYWdpbmEgU2lnbmluZyBDQTEbMBkGA1UEAwwSSW1h
Z2luYSBTaWduaW5nIENBMB4XDTIyMTIxMjE5MjkxOFoXDTI0MTIxMTE5MjkxOFow
gZcxEzARBgoJkiaJk/IsZAEZFgNvcmcxFzAVBgoJkiaJk/IsZAEZFgdpbWFnaW5h
MRcwFQYKCZImiZPyLGQBGRYHaW1hZ2luYTEUMBIGA1UECgwLSW1hZ2luYSBJbmMx
GzAZBgNVBAsMEkltYWdpbmEgU2lnbmluZyBDQTEbMBkGA1UEAwwSSW1hZ2luYSBT
aWduaW5nIENBMIIBIjANBgkqhkiG9w0BAQEFAAOCAQ8AMIIBCgKCAQEAmbnlMOQ+
PYrRAVrmYk7aEiIy+igEA6+25Puc3qFDMBg42fYVCrJMLDbutU+w/BhBFy9dyV8y
R40xuo0NZwJzRwCTgseTKTtd6votq514BxmFN0Iod0KUlrQXx0jKGtxVLVU9cmoL
LgCTkXvPbjCjK+57nuYDCCwetmgtg43lMUD09Am0LcrG6fzEO7mqt5HwwEE/4iGL
zlxxflue6SxBxUxhfWw//X1fj/AIg67IbRG7NaRZEDsG4ozkHptCGi4NBRfqC+wM
pqpgc9VSMHM4ll53YFLi/6++aBP+dTAhH9SNh/jrZenUUbBFGzIDov8HFHQyhxXZ
pvwt3mv/8SygIQIDAQABo4GZMIGWMA4GA1UdDwEB/wQEAwIFoDAJBgNVHRMEAjAA
MB0GA1UdJQQWMBQGCCsGAQUFBwMBBggrBgEFBQcDAjAdBgNVHQ4EFgQUEDm2OHaV
4BngGi+ZR7LNKbsyI0cwHwYDVR0jBBgwFoAUJklrbwF1d3Xr3XNDMK3HTS23w7Qw
GgYDVR0RBBMwEYIPaW1hZ2luYS5rOHMub3JnMA0GCSqGSIb3DQEBBQUAA4IBAQBl
1L5datxdJUg36O648bX37T8IcEigsEbwc1fEVXjn07NH61eLm+SrFZT9mSDkk6zu
iEEchmrNKrwJatkj6ByXhdZyp8ZIAAiYphGkyGSKjMH6osamVY5S9nqONC+jwSWo
C0MZSuWC6+NPsVpMvlKIWEpt6G/OUL1Fj9lc4wkw1pFRhQhz8ei/Ar8Nd7g+SNAd
76DhXGCrcRjiQPbkcXoKE5tNuPSs9KWCVKKk31sUCLRu0iGDs7kTyU3cRfFOpJnq
pzYGn0qhpUbezOi4DawfUuO1SIkGfwte6H0Gqxa5spceDjMz9x81ZNr2y3oQnGtF
tZB5JKFjOcm/Nt058qv+
-----END CERTIFICATE-----
