Certificate:
    Data:
        Version: 3 (0x2)
        Serial Number: 1 (0x1)
        Signature Algorithm: sha1WithRSAEncryption
        Issuer: DC=org, DC=imagina, O=Imagina Inc, OU=Imagina Root CA, CN=Imagina Root CA
        Validity
            Not Before: Dec 12 19:01:47 2022 GMT
            Not After : Dec 11 19:01:47 2032 GMT
        Subject: DC=org, DC=imagina, O=Imagina Inc, OU=Imagina Root CA, CN=Imagina Root CA
        Subject Public Key Info:
            Public Key Algorithm: rsaEncryption
                RSA Public-Key: (2048 bit)
                Modulus:
                    00:af:b6:4c:96:0a:bf:7e:6d:a5:ed:ab:c5:4e:c9:
                    cd:6d:53:5c:99:44:6c:db:24:60:1b:3a:c9:57:83:
                    1e:c4:9d:e5:42:32:3e:8d:bd:80:39:4b:29:01:4d:
                    9c:58:b5:be:27:fb:45:99:3d:d2:f7:12:2b:14:db:
                    27:37:25:6d:90:aa:b0:6d:ce:c3:0d:1b:fd:d4:92:
                    13:40:2f:4f:ae:7f:32:67:c9:c9:0a:e0:90:66:d1:
                    8a:8f:02:ec:40:af:c8:44:a5:98:75:53:44:c5:15:
                    84:ef:43:04:8e:5a:51:5c:12:62:a6:4e:b2:99:5d:
                    1c:aa:fd:fc:5a:7e:b3:4e:89:08:05:93:84:e8:f4:
                    3f:58:9c:71:0b:eb:7a:b5:bf:4c:b8:d9:66:3b:81:
                    91:92:8f:f3:a0:e7:96:9e:57:25:21:a8:67:77:ba:
                    48:26:22:af:7e:7f:ca:b1:6f:b8:4d:0c:77:e6:51:
                    27:1c:52:43:42:f5:13:9d:c6:9b:d5:e9:9b:e0:53:
                    d8:9c:1c:0b:ef:38:0c:0a:42:0f:92:ce:8b:49:70:
                    23:fd:c0:38:b8:6d:27:aa:f0:d4:b6:63:f1:1e:b1:
                    92:ee:e0:f1:bb:dd:57:da:76:ab:84:82:d7:6f:cc:
                    5f:1c:9e:9b:a5:a4:03:80:d7:7d:a4:e1:c6:31:7d:
                    cc:c5
                Exponent: 65537 (0x10001)
        X509v3 extensions:
            X509v3 Key Usage: critical
                Certificate Sign, CRL Sign
            X509v3 Basic Constraints: critical
                CA:TRUE
            X509v3 Subject Key Identifier: 
                19:A0:3A:B6:A4:BA:A1:59:BA:68:03:3B:BF:C8:44:F2:C1:AD:6C:EB
            X509v3 Authority Key Identifier: 
                keyid:19:A0:3A:B6:A4:BA:A1:59:BA:68:03:3B:BF:C8:44:F2:C1:AD:6C:EB

    Signature Algorithm: sha1WithRSAEncryption
         7b:69:27:e9:db:85:39:b5:ef:43:e0:7a:aa:d1:63:4e:81:1e:
         7b:a3:82:c9:57:e2:58:63:4e:e3:8a:95:8f:55:a7:09:96:f2:
         b4:9f:44:44:97:e1:60:bc:31:9b:02:ad:e9:81:d6:ed:45:c1:
         3a:a8:76:e9:03:d8:59:3e:ea:47:b0:67:4c:59:a9:c3:4d:c5:
         06:01:ef:40:f2:24:81:c6:b2:99:98:20:81:dd:ee:b7:4e:1f:
         dd:a7:f7:7b:e3:79:c5:19:09:9c:77:89:e3:b0:45:a2:f8:6b:
         8b:89:b5:4d:11:0c:54:22:33:b2:8b:8f:97:53:19:7d:21:18:
         a8:bc:a7:07:7c:94:ba:9b:97:b4:bd:ef:b8:67:31:55:9f:c5:
         c8:c2:f0:64:b6:75:3c:a3:57:dc:08:ef:a8:85:d1:eb:32:66:
         5a:d6:b7:be:41:c8:27:74:ce:9f:be:6a:c4:c4:c5:92:88:10:
         a6:59:9a:d9:de:52:33:dd:5d:c7:d2:d1:c7:c4:58:9e:45:27:
         89:a0:e7:18:0b:83:46:14:0f:c9:c6:ed:2d:a9:0f:90:b5:a9:
         60:d5:07:fb:58:01:96:22:91:e4:95:34:1f:86:b3:d4:da:52:
         d1:cd:59:fe:97:29:f1:c8:93:44:85:31:dd:61:bf:ea:42:61:
         71:e0:ff:6c
-----BEGIN CERTIFICATE-----
MIIDzjCCAragAwIBAgIBATANBgkqhkiG9w0BAQUFADB4MRMwEQYKCZImiZPyLGQB
GRYDb3JnMRcwFQYKCZImiZPyLGQBGRYHaW1hZ2luYTEUMBIGA1UECgwLSW1hZ2lu
YSBJbmMxGDAWBgNVBAsMD0ltYWdpbmEgUm9vdCBDQTEYMBYGA1UEAwwPSW1hZ2lu
YSBSb290IENBMB4XDTIyMTIxMjE5MDE0N1oXDTMyMTIxMTE5MDE0N1oweDETMBEG
CgmSJomT8ixkARkWA29yZzEXMBUGCgmSJomT8ixkARkWB2ltYWdpbmExFDASBgNV
BAoMC0ltYWdpbmEgSW5jMRgwFgYDVQQLDA9JbWFnaW5hIFJvb3QgQ0ExGDAWBgNV
BAMMD0ltYWdpbmEgUm9vdCBDQTCCASIwDQYJKoZIhvcNAQEBBQADggEPADCCAQoC
ggEBAK+2TJYKv35tpe2rxU7JzW1TXJlEbNskYBs6yVeDHsSd5UIyPo29gDlLKQFN
nFi1vif7RZk90vcSKxTbJzclbZCqsG3Oww0b/dSSE0AvT65/MmfJyQrgkGbRio8C
7ECvyESlmHVTRMUVhO9DBI5aUVwSYqZOspldHKr9/Fp+s06JCAWThOj0P1iccQvr
erW/TLjZZjuBkZKP86Dnlp5XJSGoZ3e6SCYir35/yrFvuE0Md+ZRJxxSQ0L1E53G
m9Xpm+BT2JwcC+84DApCD5LOi0lwI/3AOLhtJ6rw1LZj8R6xku7g8bvdV9p2q4SC
12/MXxyem6WkA4DXfaThxjF9zMUCAwEAAaNjMGEwDgYDVR0PAQH/BAQDAgEGMA8G
A1UdEwEB/wQFMAMBAf8wHQYDVR0OBBYEFBmgOrakuqFZumgDO7/IRPLBrWzrMB8G
A1UdIwQYMBaAFBmgOrakuqFZumgDO7/IRPLBrWzrMA0GCSqGSIb3DQEBBQUAA4IB
AQB7aSfp24U5te9D4Hqq0WNOgR57o4LJV+JYY07jipWPVacJlvK0n0REl+FgvDGb
Aq3pgdbtRcE6qHbpA9hZPupHsGdMWanDTcUGAe9A8iSBxrKZmCCB3e63Th/dp/d7
43nFGQmcd4njsEWi+GuLibVNEQxUIjOyi4+XUxl9IRiovKcHfJS6m5e0ve+4ZzFV
n8XIwvBktnU8o1fcCO+ohdHrMmZa1re+QcgndM6fvmrExMWSiBCmWZrZ3lIz3V3H
0tHHxFieRSeJoOcYC4NGFA/Jxu0tqQ+Qtalg1Qf7WAGWIpHklTQfhrPU2lLRzVn+
lynxyJNEhTHdYb/qQmFx4P9s
-----END CERTIFICATE-----
