Certificate:
    Data:
        Version: 3 (0x2)
        Serial Number: 2 (0x2)
        Signature Algorithm: sha1WithRSAEncryption
        Issuer: DC=org, DC=imagina, O=Imagina Inc, OU=Imagina Root CA, CN=Imagina Root CA
        Validity
            Not Before: Dec 12 19:07:21 2022 GMT
            Not After : Dec 11 19:07:21 2032 GMT
        Subject: DC=org, DC=imagina, O=Imagina Inc, OU=Imagina Signing CA, CN=Imagina Signing CA
        Subject Public Key Info:
            Public Key Algorithm: rsaEncryption
                RSA Public-Key: (2048 bit)
                Modulus:
                    00:fe:ea:2b:4e:72:60:d6:ab:1e:e1:7d:6b:fa:35:
                    65:3f:fc:bd:fd:b8:81:55:93:ba:60:c9:39:13:a2:
                    fa:f0:4c:a3:2b:86:5c:e7:34:7e:07:79:12:ca:06:
                    ed:c7:f2:af:7d:16:6e:75:85:77:32:cf:7f:2d:19:
                    97:46:7a:dd:05:76:6b:17:61:88:64:64:90:ee:50:
                    26:ee:89:d5:c0:c4:91:ef:ca:8c:a5:7f:fc:58:e8:
                    cd:d3:bc:db:5d:98:52:7f:3f:e0:79:12:1f:d8:5d:
                    14:ed:65:67:73:ee:29:c4:12:07:c4:a5:cb:ed:62:
                    d6:77:3e:3c:3f:df:77:0f:06:36:f3:db:35:4f:6d:
                    f6:9d:94:ef:73:48:f6:5f:b5:c4:80:a0:04:f4:6d:
                    93:31:ee:96:b1:0e:d0:8e:af:79:ad:98:ef:5f:2a:
                    3c:e4:59:cc:95:71:d8:96:e8:7c:f6:ac:fd:a4:f0:
                    e4:2b:da:24:6a:78:d9:12:11:b7:9d:12:a4:87:cc:
                    d7:10:e6:82:c4:e8:e8:d7:0f:4d:7a:35:1c:3d:d2:
                    f8:d0:92:ef:f5:41:04:a1:36:b6:ba:35:13:33:11:
                    3d:2f:80:77:dd:e2:ea:31:93:52:70:9d:06:ee:bd:
                    78:0b:6a:d4:71:a1:ea:ae:31:70:b3:b6:68:b5:9d:
                    4b:b1
                Exponent: 65537 (0x10001)
        X509v3 extensions:
            X509v3 Key Usage: critical
                Certificate Sign, CRL Sign
            X509v3 Basic Constraints: critical
                CA:TRUE, pathlen:0
            X509v3 Subject Key Identifier: 
                26:49:6B:6F:01:75:77:75:EB:DD:73:43:30:AD:C7:4D:2D:B7:C3:B4
            X509v3 Authority Key Identifier: 
                keyid:19:A0:3A:B6:A4:BA:A1:59:BA:68:03:3B:BF:C8:44:F2:C1:AD:6C:EB

    Signature Algorithm: sha1WithRSAEncryption
         46:10:9b:f5:92:7e:e8:6e:7f:2e:67:18:90:f4:22:81:51:e5:
         cf:9f:5b:c3:00:e5:94:c7:a7:be:c6:0a:12:28:ff:0a:8c:94:
         7d:2d:a7:a1:6d:b6:83:dc:19:81:51:e3:83:e6:ba:48:6e:24:
         91:8e:66:62:8d:de:16:c8:28:f4:1d:5c:7d:d8:fb:94:ad:63:
         94:bf:81:93:5b:fd:c4:73:17:c4:8b:a9:89:a8:e8:4c:63:55:
         ba:bd:75:ea:dc:ff:b2:60:0e:bc:48:98:f0:81:a4:de:ac:81:
         95:4d:60:8c:dc:af:47:26:5e:d7:25:38:7c:af:f4:1b:20:2c:
         f4:34:7c:dc:c5:f1:87:b9:1e:05:da:b0:bc:40:d5:f3:4c:53:
         6d:a9:8f:36:be:7d:ab:3a:39:c0:42:04:66:ef:67:50:22:1c:
         9b:46:94:9d:e2:6b:91:40:34:d3:13:ef:20:6d:41:67:1a:27:
         cf:28:92:f3:c5:cc:bd:eb:1c:0e:e5:1d:c3:38:f9:de:e8:35:
         6e:af:b1:17:c2:b5:b3:dc:88:59:b6:18:93:f7:ca:8c:ba:cd:
         f2:73:37:68:05:49:d7:9d:b9:62:21:1e:1d:8a:90:65:d0:0a:
         0b:d3:b5:a5:31:fc:c5:53:d9:46:73:6d:eb:49:a6:95:aa:ea:
         f6:97:96:a5
-----BEGIN CERTIFICATE-----
MIID1zCCAr+gAwIBAgIBAjANBgkqhkiG9w0BAQUFADB4MRMwEQYKCZImiZPyLGQB
GRYDb3JnMRcwFQYKCZImiZPyLGQBGRYHaW1hZ2luYTEUMBIGA1UECgwLSW1hZ2lu
YSBJbmMxGDAWBgNVBAsMD0ltYWdpbmEgUm9vdCBDQTEYMBYGA1UEAwwPSW1hZ2lu
YSBSb290IENBMB4XDTIyMTIxMjE5MDcyMVoXDTMyMTIxMTE5MDcyMVowfjETMBEG
CgmSJomT8ixkARkWA29yZzEXMBUGCgmSJomT8ixkARkWB2ltYWdpbmExFDASBgNV
BAoMC0ltYWdpbmEgSW5jMRswGQYDVQQLDBJJbWFnaW5hIFNpZ25pbmcgQ0ExGzAZ
BgNVBAMMEkltYWdpbmEgU2lnbmluZyBDQTCCASIwDQYJKoZIhvcNAQEBBQADggEP
ADCCAQoCggEBAP7qK05yYNarHuF9a/o1ZT/8vf24gVWTumDJOROi+vBMoyuGXOc0
fgd5EsoG7cfyr30WbnWFdzLPfy0Zl0Z63QV2axdhiGRkkO5QJu6J1cDEke/KjKV/
/FjozdO8212YUn8/4HkSH9hdFO1lZ3PuKcQSB8Sly+1i1nc+PD/fdw8GNvPbNU9t
9p2U73NI9l+1xICgBPRtkzHulrEO0I6vea2Y718qPORZzJVx2JbofPas/aTw5Cva
JGp42RIRt50SpIfM1xDmgsTo6NcPTXo1HD3S+NCS7/VBBKE2tro1EzMRPS+Ad93i
6jGTUnCdBu69eAtq1HGh6q4xcLO2aLWdS7ECAwEAAaNmMGQwDgYDVR0PAQH/BAQD
AgEGMBIGA1UdEwEB/wQIMAYBAf8CAQAwHQYDVR0OBBYEFCZJa28BdXd1691zQzCt
x00tt8O0MB8GA1UdIwQYMBaAFBmgOrakuqFZumgDO7/IRPLBrWzrMA0GCSqGSIb3
DQEBBQUAA4IBAQBGEJv1kn7obn8uZxiQ9CKBUeXPn1vDAOWUx6e+xgoSKP8KjJR9
LaehbbaD3BmBUeOD5rpIbiSRjmZijd4WyCj0HVx92PuUrWOUv4GTW/3EcxfEi6mJ
qOhMY1W6vXXq3P+yYA68SJjwgaTerIGVTWCM3K9HJl7XJTh8r/QbICz0NHzcxfGH
uR4F2rC8QNXzTFNtqY82vn2rOjnAQgRm72dQIhybRpSd4muRQDTTE+8gbUFnGifP
KJLzxcy96xwO5R3DOPne6DVur7EXwrWz3IhZthiT98qMus3yczdoBUnXnbliIR4d
ipBl0AoL07WlMfzFU9lGc23rSaaVqur2l5al
-----END CERTIFICATE-----
